target datalayout = "e-m:e-p270:32:32-p271:32:32-p272:64:64-i64:64-i128:128-f80:128-n8:16:32:64-S128"
target triple = "x86_64-pc-linux-gnu"

@.str.4 = private unnamed_addr constant [2 x i8] c"\0A\00", align 1
@.str.5 = private unnamed_addr constant [43 x i8] c"    abstract [mode] [options] [selection]\0A\00", align 1
@.str.6 = private unnamed_addr constant [81 x i8] c"Perform abstraction of signals within the design. Abstraction replaces a signal\0A\00", align 1
@.str.7 = private unnamed_addr constant [80 x i8] c"with an unconstrained abstract value that can take an arbitrary concrete value\0A\00", align 1
@.str.8 = private unnamed_addr constant [79 x i8] c"during formal verification. The mode and options control when a signal should\0A\00", align 1
@.str.9 = private unnamed_addr constant [67 x i8] c"be abstracted and how it should affect FFs present in the design.\0A\00", align 1
@.str.10 = private unnamed_addr constant [7 x i8] c"Modes:\00", align 1
@.str.11 = private unnamed_addr constant [12 x i8] c"    -state\0A\00", align 1
@.str.12 = private unnamed_addr constant [81 x i8] c"        The selected FFs will be modified to load a new abstract value on every\0A\00", align 1
@.str.13 = private unnamed_addr constant [82 x i8] c"        active clock edge, async reset or async load. This is independent of any\0A\00", align 1
@.str.14 = private unnamed_addr constant [82 x i8] c"        clock enable that may be present on the FF cell. Conditional abstraction\0A\00", align 1
@.str.15 = private unnamed_addr constant [83 x i8] c"        is supported with the -enable/-enabeln options. If present, the condition\0A\00", align 1
@.str.16 = private unnamed_addr constant [82 x i8] c"        is sampled at the same time as the FF would smaple the correspnding data\0A\00", align 1
@.str.17 = private unnamed_addr constant [82 x i8] c"        or async-data input whose value will be replaced with an abstract value.\0A\00", align 1
@.str.18 = private unnamed_addr constant [80 x i8] c"        The selection can be used to specify which state bits to abstract. For\0A\00", align 1
@.str.19 = private unnamed_addr constant [79 x i8] c"        each selected wire, any state bits that the wire is driven by will be\0A\00", align 1
@.str.20 = private unnamed_addr constant [77 x i8] c"        abstracted. For a selected FF cell, all of its state is abstracted.\0A\00", align 1
@.str.21 = private unnamed_addr constant [80 x i8] c"        Individual bits of a single wire can be abtracted using the -slice and\0A\00", align 1
@.str.22 = private unnamed_addr constant [30 x i8] c"        -rtlilslice options.\0A\00", align 1
@.str.23 = private unnamed_addr constant [11 x i8] c"    -init\0A\00", align 1
@.str.24 = private unnamed_addr constant [78 x i8] c"        The selected FFs will be modified to have an abstract initial value.\0A\00", align 1
@.str.25 = private unnamed_addr constant [70 x i8] c"        The -enable/-enablen options are not supported in this mode.\0A\00", align 1
@.str.26 = private unnamed_addr constant [10 x i8] c"        \0A\00", align 1
@.str.27 = private unnamed_addr constant [77 x i8] c"        The selection is used in the same way as it is for the -state mode.\0A\00", align 1
@.str.28 = private unnamed_addr constant [12 x i8] c"    -value\0A\00", align 1
@.str.29 = private unnamed_addr constant [79 x i8] c"        The drivers of the selected signals will be replaced with an abstract\0A\00", align 1
@.str.30 = private unnamed_addr constant [79 x i8] c"        value. In this mode, the abstract value can change at any time and is\0A\00", align 1
@.str.31 = private unnamed_addr constant [80 x i8] c"        not synchronized to any clock or other signal. Conditional abstraction\0A\00", align 1
@.str.32 = private unnamed_addr constant [76 x i8] c"        is supported with the -enable/-enablen options. The condition will\0A\00", align 1
@.str.33 = private unnamed_addr constant [77 x i8] c"        combinationally select between the original driver and the abstract\0A\00", align 1
@.str.34 = private unnamed_addr constant [16 x i8] c"        value.\0A\00", align 1
@.str.35 = private unnamed_addr constant [81 x i8] c"        The selection can be used to specify which output bits of which drivers\0A\00", align 1
@.str.36 = private unnamed_addr constant [82 x i8] c"        to abtract. For a selected cell, all its output bits will be abstracted.\0A\00", align 1
@.str.37 = private unnamed_addr constant [80 x i8] c"        For a selected wire, every output bit that is driving the wire will be\0A\00", align 1
@.str.38 = private unnamed_addr constant [82 x i8] c"        abstracted. Individual bits of a single wire can be abstracted using the\0A\00", align 1
@.str.39 = private unnamed_addr constant [41 x i8] c"        -slice and -rtlilslice options.\0A\00", align 1
@.str.40 = private unnamed_addr constant [25 x i8] c"    -enable <wire-name>\0A\00", align 1
@.str.41 = private unnamed_addr constant [26 x i8] c"    -enablen <wire-name>\0A\00", align 1
@.str.42 = private unnamed_addr constant [73 x i8] c"        Perform conditional abstraction with a named single bit wire as\0A\00", align 1
@.str.43 = private unnamed_addr constant [81 x i8] c"        condition. For -enable the wire is used as an active-high condition and\0A\00", align 1
@.str.44 = private unnamed_addr constant [77 x i8] c"        for -enablen as an active-low condition. See the description of the\0A\00", align 1
@.str.45 = private unnamed_addr constant [78 x i8] c"        -state and -value modes for details on how the condition affects the\0A\00", align 1
@.str.46 = private unnamed_addr constant [80 x i8] c"        abstractions performed by either mode. This option is not supported in\0A\00", align 1
@.str.47 = private unnamed_addr constant [25 x i8] c"        the -init mode.\0A\00", align 1
@.str.48 = private unnamed_addr constant [24 x i8] c"    -slice <lhs>:<rhs>\0A\00", align 1
@.str.49 = private unnamed_addr constant [20 x i8] c"    -slice <index>\0A\00", align 1
@.str.50 = private unnamed_addr constant [29 x i8] c"    -rtlilslice <lhs>:<rhs>\0A\00", align 1
@.str.51 = private unnamed_addr constant [25 x i8] c"    -rtlilslice <index>\0A\00", align 1
@.str.52 = private unnamed_addr constant [82 x i8] c"        Limit the abstraction to a slice of a single selected wire. The targeted\0A\00", align 1
@.str.53 = private unnamed_addr constant [80 x i8] c"        bits of the wire can be given as an inclusive range of indices or as a\0A\00", align 1
@.str.54 = private unnamed_addr constant [81 x i8] c"        single index. When using the -slice option, the indices are interpreted\0A\00", align 1
@.str.55 = private unnamed_addr constant [76 x i8] c"        following the source level declaration of the wire. This means the\0A\00", align 1
@.str.56 = private unnamed_addr constant [83 x i8] c"        -slice option will respect declarations with a non-zero-based index range\0A\00", align 1
@.str.57 = private unnamed_addr constant [76 x i8] c"        or with reversed bitorder. The -rtlilslice options will always use\0A\00", align 1
@.str.58 = private unnamed_addr constant [80 x i8] c"        zero-based indexing where index 0 corresponds to the least significant\0A\00", align 1
@.str.59 = private unnamed_addr constant [26 x i8] c"        bit of the wire.\0A\00", align 1

; Function Attrs: mustprogress uwtable
define internal void @_ZN12_GLOBAL__N_112AbstractPass4helpEv(ptr noundef nonnull align 8 dereferenceable(104) %0) unnamed_addr #4 align 2 {
  %2 = alloca ptr, align 8
  store ptr %0, ptr %2, align 8, !tbaa !6
  call void (ptr, ...) @_ZN5Yosys3logEPKcz(ptr noundef @.str.4)
  call void (ptr, ...) @_ZN5Yosys3logEPKcz(ptr noundef @.str.5)
  call void (ptr, ...) @_ZN5Yosys3logEPKcz(ptr noundef @.str.4)
  call void (ptr, ...) @_ZN5Yosys3logEPKcz(ptr noundef @.str.6)
  call void (ptr, ...) @_ZN5Yosys3logEPKcz(ptr noundef @.str.7)
  call void (ptr, ...) @_ZN5Yosys3logEPKcz(ptr noundef @.str.8)
  call void (ptr, ...) @_ZN5Yosys3logEPKcz(ptr noundef @.str.9)
  call void (ptr, ...) @_ZN5Yosys3logEPKcz(ptr noundef @.str.4)
  call void (ptr, ...) @_ZN5Yosys3logEPKcz(ptr noundef @.str.10)
  call void (ptr, ...) @_ZN5Yosys3logEPKcz(ptr noundef @.str.4)
  call void (ptr, ...) @_ZN5Yosys3logEPKcz(ptr noundef @.str.11)
  call void (ptr, ...) @_ZN5Yosys3logEPKcz(ptr noundef @.str.12)
  call void (ptr, ...) @_ZN5Yosys3logEPKcz(ptr noundef @.str.13)
  call void (ptr, ...) @_ZN5Yosys3logEPKcz(ptr noundef @.str.14)
  call void (ptr, ...) @_ZN5Yosys3logEPKcz(ptr noundef @.str.15)
  call void (ptr, ...) @_ZN5Yosys3logEPKcz(ptr noundef @.str.16)
  call void (ptr, ...) @_ZN5Yosys3logEPKcz(ptr noundef @.str.17)
  call void (ptr, ...) @_ZN5Yosys3logEPKcz(ptr noundef @.str.4)
  call void (ptr, ...) @_ZN5Yosys3logEPKcz(ptr noundef @.str.18)
  call void (ptr, ...) @_ZN5Yosys3logEPKcz(ptr noundef @.str.19)
  call void (ptr, ...) @_ZN5Yosys3logEPKcz(ptr noundef @.str.20)
  call void (ptr, ...) @_ZN5Yosys3logEPKcz(ptr noundef @.str.21)
  call void (ptr, ...) @_ZN5Yosys3logEPKcz(ptr noundef @.str.22)
  call void (ptr, ...) @_ZN5Yosys3logEPKcz(ptr noundef @.str.4)
  call void (ptr, ...) @_ZN5Yosys3logEPKcz(ptr noundef @.str.23)
  call void (ptr, ...) @_ZN5Yosys3logEPKcz(ptr noundef @.str.24)
  call void (ptr, ...) @_ZN5Yosys3logEPKcz(ptr noundef @.str.25)
  call void (ptr, ...) @_ZN5Yosys3logEPKcz(ptr noundef @.str.26)
  call void (ptr, ...) @_ZN5Yosys3logEPKcz(ptr noundef @.str.27)
  call void (ptr, ...) @_ZN5Yosys3logEPKcz(ptr noundef @.str.4)
  call void (ptr, ...) @_ZN5Yosys3logEPKcz(ptr noundef @.str.28)
  call void (ptr, ...) @_ZN5Yosys3logEPKcz(ptr noundef @.str.29)
  call void (ptr, ...) @_ZN5Yosys3logEPKcz(ptr noundef @.str.30)
  call void (ptr, ...) @_ZN5Yosys3logEPKcz(ptr noundef @.str.31)
  call void (ptr, ...) @_ZN5Yosys3logEPKcz(ptr noundef @.str.32)
  call void (ptr, ...) @_ZN5Yosys3logEPKcz(ptr noundef @.str.33)
  call void (ptr, ...) @_ZN5Yosys3logEPKcz(ptr noundef @.str.34)
  call void (ptr, ...) @_ZN5Yosys3logEPKcz(ptr noundef @.str.4)
  call void (ptr, ...) @_ZN5Yosys3logEPKcz(ptr noundef @.str.35)
  call void (ptr, ...) @_ZN5Yosys3logEPKcz(ptr noundef @.str.36)
  call void (ptr, ...) @_ZN5Yosys3logEPKcz(ptr noundef @.str.37)
  call void (ptr, ...) @_ZN5Yosys3logEPKcz(ptr noundef @.str.38)
  call void (ptr, ...) @_ZN5Yosys3logEPKcz(ptr noundef @.str.39)
  call void (ptr, ...) @_ZN5Yosys3logEPKcz(ptr noundef @.str.4)
  call void (ptr, ...) @_ZN5Yosys3logEPKcz(ptr noundef @.str.40)
  call void (ptr, ...) @_ZN5Yosys3logEPKcz(ptr noundef @.str.41)
  call void (ptr, ...) @_ZN5Yosys3logEPKcz(ptr noundef @.str.42)
  call void (ptr, ...) @_ZN5Yosys3logEPKcz(ptr noundef @.str.43)
  call void (ptr, ...) @_ZN5Yosys3logEPKcz(ptr noundef @.str.44)
  call void (ptr, ...) @_ZN5Yosys3logEPKcz(ptr noundef @.str.45)
  call void (ptr, ...) @_ZN5Yosys3logEPKcz(ptr noundef @.str.46)
  call void (ptr, ...) @_ZN5Yosys3logEPKcz(ptr noundef @.str.47)
  call void (ptr, ...) @_ZN5Yosys3logEPKcz(ptr noundef @.str.4)
  call void (ptr, ...) @_ZN5Yosys3logEPKcz(ptr noundef @.str.48)
  call void (ptr, ...) @_ZN5Yosys3logEPKcz(ptr noundef @.str.49)
  call void (ptr, ...) @_ZN5Yosys3logEPKcz(ptr noundef @.str.50)
  call void (ptr, ...) @_ZN5Yosys3logEPKcz(ptr noundef @.str.51)
  call void (ptr, ...) @_ZN5Yosys3logEPKcz(ptr noundef @.str.52)
  call void (ptr, ...) @_ZN5Yosys3logEPKcz(ptr noundef @.str.53)
  call void (ptr, ...) @_ZN5Yosys3logEPKcz(ptr noundef @.str.54)
  call void (ptr, ...) @_ZN5Yosys3logEPKcz(ptr noundef @.str.55)
  call void (ptr, ...) @_ZN5Yosys3logEPKcz(ptr noundef @.str.56)
  call void (ptr, ...) @_ZN5Yosys3logEPKcz(ptr noundef @.str.57)
  call void (ptr, ...) @_ZN5Yosys3logEPKcz(ptr noundef @.str.58)
  call void (ptr, ...) @_ZN5Yosys3logEPKcz(ptr noundef @.str.59)
  call void (ptr, ...) @_ZN5Yosys3logEPKcz(ptr noundef @.str.4)
  ret void
}